ARM GAS  C:\WINDOWS\cc5Mzku2.s 			page 1


   1              		.syntax unified
   2              		.cpu cortex-m3
   3              		.fpu softvfp
   4              		.eabi_attribute 20, 1
   5              		.eabi_attribute 21, 1
   6              		.eabi_attribute 23, 3
   7              		.eabi_attribute 24, 1
   8              		.eabi_attribute 25, 1
   9              		.eabi_attribute 26, 1
  10              		.eabi_attribute 30, 6
  11              		.eabi_attribute 34, 1
  12              		.eabi_attribute 18, 4
  13              		.thumb
  14              		.file	"mapping.cxx"
  15              		.text
  16              	.Ltext0:
  17              		.cfi_sections	.debug_frame
  18              		.global	In
  19              		.section	.inputs,"aw",%progbits
  20              		.align	2
  23              	In:
  24 0000 00000000 		.space	6
  24      0000
  25 0006 0000     		.text
  26              	.Letext0:
  27              		.file 1 "C:\\Plug & Drive Studio\\PNDS-2.1.3-x86\\workspace\\NanoJ project\\gen\\types.h"
  28              		.file 2 "C:\\Plug & Drive Studio\\PNDS-2.1.3-x86\\workspace\\NanoJ project\\gen\\mapping.h"
  29              		.file 3 "C:\\Plug & Drive Studio\\PNDS-2.1.3-x86\\workspace\\NanoJ project\\gen\\mapping.cxx"
ARM GAS  C:\WINDOWS\cc5Mzku2.s 			page 2

